(dp0
Vengine
p1
Vpdflatex
p2
sVpackages
p3
c__builtin__
set
p4
((lp5
Valgorithmic
p6
aValgorithm
p7
aVamsmath
p8
aVbabel
p9
aVmultirow
p10
aVinputenc
p11
aVsubcaption
p12
aVgraphicx
p13
aVcolor
p14
aVamssymb
p15
atp16
Rp17
sVfiles_with_guttermarks
p18
g4
((lp19
S'edbv_konzept_ag_xx.tex'
p20
aV/Users/filiphoertner/Nextcloud/Studium/_W2019/EDBV/roomorithm/Konzept/edbv_konzept_ag_e5/./edbv_konzept_ag_e5.tex
p21
atp22
Rp23
sVsynctex
p24
I01
s.